target datalayout = "e-m:e-p270:32:32-p271:32:32-p272:64:64-i64:64-i128:128-f80:128-n8:16:32:64-S128"
target triple = "x86_64-pc-linux-gnu"

%"class.duckdb::BaseStatistics" = type { %"struct.duckdb::LogicalType", i8, i8, i64, %union.anon, %"class.duckdb::unique_ptr" }
%"struct.duckdb::LogicalType" = type { i8, i8, %"class.duckdb::shared_ptr" }
%"class.duckdb::shared_ptr" = type { %"class.std::shared_ptr" }
%"class.std::shared_ptr" = type { %"class.std::__shared_ptr" }
%"class.std::__shared_ptr" = type { ptr, %"class.std::__shared_count" }
%"class.std::__shared_count" = type { ptr }
%union.anon = type { %"struct.duckdb::NumericStatsData" }
%"struct.duckdb::NumericStatsData" = type { i8, i8, %"struct.duckdb::NumericValueUnion", %"struct.duckdb::NumericValueUnion" }
%"struct.duckdb::NumericValueUnion" = type { %"union.duckdb::NumericValueUnion::Val" }
%"union.duckdb::NumericValueUnion::Val" = type { %"struct.duckdb::hugeint_t" }
%"struct.duckdb::hugeint_t" = type { i64, i64 }
%"class.duckdb::unique_ptr" = type { %"class.std::unique_ptr" }
%"class.std::unique_ptr" = type { %"struct.std::__uniq_ptr_data" }
%"struct.std::__uniq_ptr_data" = type { %"class.std::__uniq_ptr_impl" }
%"class.std::__uniq_ptr_impl" = type { %"class.std::tuple" }
%"class.std::tuple" = type { %"struct.std::_Tuple_impl" }
%"struct.std::_Tuple_impl" = type { %"struct.std::_Head_base.1" }
%"struct.std::_Head_base.1" = type { ptr }
%"struct.duckdb::ValidityMask" = type { %"struct.duckdb::TemplatedValidityMask" }
%"struct.duckdb::TemplatedValidityMask" = type { ptr, %"class.duckdb::shared_ptr.63", i64 }
%"class.duckdb::shared_ptr.63" = type { %"class.std::shared_ptr.64" }
%"class.std::shared_ptr.64" = type { %"class.std::__shared_ptr.65" }
%"class.std::__shared_ptr.65" = type { ptr, %"class.std::__shared_count" }
%"class.duckdb::unique_ptr.90" = type { %"class.std::unique_ptr.91" }
%"class.std::unique_ptr.91" = type { %"struct.std::__uniq_ptr_data.92" }
%"struct.std::__uniq_ptr_data.92" = type { %"class.std::__uniq_ptr_impl.93" }
%"class.std::__uniq_ptr_impl.93" = type { %"class.std::tuple.94" }
%"class.std::tuple.94" = type { %"struct.std::_Tuple_impl.95" }
%"struct.std::_Tuple_impl.95" = type { %"struct.std::_Head_base.98" }
%"struct.std::_Head_base.98" = type { ptr }
%"class.duckdb::ColumnStatistics" = type { %"class.duckdb::BaseStatistics", %"class.duckdb::unique_ptr.90" }
%"class.duckdb::DistinctStatistics" = type { %"class.duckdb::unique_ptr.103", %"struct.std::atomic", %"struct.std::atomic" }
%"class.duckdb::unique_ptr.103" = type { %"class.std::unique_ptr.104" }
%"class.std::unique_ptr.104" = type { %"struct.std::__uniq_ptr_data.105" }
%"struct.std::__uniq_ptr_data.105" = type { %"class.std::__uniq_ptr_impl.106" }
%"class.std::__uniq_ptr_impl.106" = type { %"class.std::tuple.107" }
%"class.std::tuple.107" = type { %"struct.std::_Tuple_impl.108" }
%"struct.std::_Tuple_impl.108" = type { %"struct.std::_Head_base.111" }
%"struct.std::_Head_base.111" = type { ptr }
%"struct.std::atomic" = type { %"struct.std::__atomic_base" }
%"struct.std::__atomic_base" = type { i64 }
%"class.duckdb::Vector" = type { i8, %"struct.duckdb::LogicalType", ptr, %"struct.duckdb::ValidityMask", %"class.duckdb::shared_ptr.67", %"class.duckdb::shared_ptr.67" }
%"class.duckdb::shared_ptr.67" = type { %"class.std::shared_ptr.68" }
%"class.std::shared_ptr.68" = type { %"class.std::__shared_ptr.69" }
%"class.std::__shared_ptr.69" = type { ptr, %"class.std::__shared_count" }

; Function Attrs: mustprogress nounwind uwtable
define linkonce_odr noundef nonnull align 8 dereferenceable(8) ptr @_ZNSt10_Head_baseILm0EPN6duckdb18DistinctStatisticsELb0EE7_M_headERKS3_(ptr noundef nonnull align 8 dereferenceable(8) %0) #6 comdat align 2 {
  %2 = alloca ptr, align 8
  store ptr %0, ptr %2, align 8, !tbaa !399
  %3 = load ptr, ptr %2, align 8, !tbaa !399
  %4 = getelementptr inbounds nuw %"struct.std::_Head_base.98", ptr %3, i32 0, i32 0
  ret ptr %4
}

; Function Attrs: mustprogress nounwind uwtable
define linkonce_odr noundef nonnull align 8 dereferenceable(8) ptr @_ZNSt11_Tuple_implILm0EJPN6duckdb18DistinctStatisticsESt14default_deleteIS1_EEE7_M_headERKS5_(ptr noundef nonnull align 8 dereferenceable(8) %0) #6 comdat align 2 {
  %2 = alloca ptr, align 8
  store ptr %0, ptr %2, align 8, !tbaa !395
  %3 = load ptr, ptr %2, align 8, !tbaa !395
  %4 = call noundef nonnull align 8 dereferenceable(8) ptr @_ZNSt10_Head_baseILm0EPN6duckdb18DistinctStatisticsELb0EE7_M_headERKS3_(ptr noundef nonnull align 8 dereferenceable(8) %3) #3
  ret ptr %4
}

; Function Attrs: mustprogress nounwind uwtable
define linkonce_odr noundef nonnull align 8 dereferenceable(8) ptr @_ZSt12__get_helperILm0EPN6duckdb18DistinctStatisticsEJSt14default_deleteIS1_EEERKT0_RKSt11_Tuple_implIXT_EJS5_DpT1_EE(ptr noundef nonnull align 8 dereferenceable(8) %0) #6 comdat {
  %2 = alloca ptr, align 8
  store ptr %0, ptr %2, align 8, !tbaa !395
  %3 = load ptr, ptr %2, align 8, !tbaa !395
  %4 = call noundef nonnull align 8 dereferenceable(8) ptr @_ZNSt11_Tuple_implILm0EJPN6duckdb18DistinctStatisticsESt14default_deleteIS1_EEE7_M_headERKS5_(ptr noundef nonnull align 8 dereferenceable(8) %3) #3
  ret ptr %4
}

; Function Attrs: mustprogress nounwind uwtable
define linkonce_odr noundef nonnull align 8 dereferenceable(8) ptr @_ZSt3getILm0EJPN6duckdb18DistinctStatisticsESt14default_deleteIS1_EEERKNSt13tuple_elementIXT_ESt5tupleIJDpT0_EEE4typeERKS9_(ptr noundef nonnull align 8 dereferenceable(8) %0) #6 comdat {
  %2 = alloca ptr, align 8
  store ptr %0, ptr %2, align 8, !tbaa !393
  %3 = load ptr, ptr %2, align 8, !tbaa !393
  %4 = call noundef nonnull align 8 dereferenceable(8) ptr @_ZSt12__get_helperILm0EPN6duckdb18DistinctStatisticsEJSt14default_deleteIS1_EEERKT0_RKSt11_Tuple_implIXT_EJS5_DpT1_EE(ptr noundef nonnull align 8 dereferenceable(8) %3) #3
  ret ptr %4
}

; Function Attrs: mustprogress nounwind uwtable
define linkonce_odr noundef ptr @_ZNKSt15__uniq_ptr_implIN6duckdb18DistinctStatisticsESt14default_deleteIS1_EE6_M_ptrEv(ptr noundef nonnull align 8 dereferenceable(8) %0) #6 comdat align 2 {
  %2 = alloca ptr, align 8
  store ptr %0, ptr %2, align 8, !tbaa !391
  %3 = load ptr, ptr %2, align 8
  %4 = getelementptr inbounds nuw %"class.std::__uniq_ptr_impl.93", ptr %3, i32 0, i32 0
  %5 = call noundef nonnull align 8 dereferenceable(8) ptr @_ZSt3getILm0EJPN6duckdb18DistinctStatisticsESt14default_deleteIS1_EEERKNSt13tuple_elementIXT_ESt5tupleIJDpT0_EEE4typeERKS9_(ptr noundef nonnull align 8 dereferenceable(8) %4) #3
  %6 = load ptr, ptr %5, align 8, !tbaa !181
  ret ptr %6
}

; Function Attrs: mustprogress uwtable
define void @_ZN6duckdb18DistinctStatistics14UpdateInternalERNS_6VectorEmS2_(ptr noundef nonnull align 8 dereferenceable(24) %0, ptr noundef nonnull align 8 dereferenceable(104) %1, i64 noundef %2, ptr noundef nonnull align 8 dereferenceable(104) %3) #4 align 2 {
  %5 = alloca ptr, align 8
  %6 = alloca ptr, align 8
  %7 = alloca i64, align 8
  %8 = alloca ptr, align 8
  store ptr %0, ptr %5, align 8, !tbaa !181
  store ptr %1, ptr %6, align 8, !tbaa !97
  store i64 %2, ptr %7, align 8, !tbaa !40
  store ptr %3, ptr %8, align 8, !tbaa !97
  %9 = load ptr, ptr %5, align 8
  %10 = load i64, ptr %7, align 8, !tbaa !40
  %11 = getelementptr inbounds nuw %"class.duckdb::DistinctStatistics", ptr %9, i32 0, i32 1
  %12 = call noundef i64 @_ZNSt13__atomic_baseImEpLEm(ptr noundef nonnull align 8 dereferenceable(8) %11, i64 noundef %10) #3
  %13 = load ptr, ptr %6, align 8, !tbaa !97
  %14 = load ptr, ptr %8, align 8, !tbaa !97
  %15 = load i64, ptr %7, align 8, !tbaa !40
  call void @_ZN6duckdb16VectorOperations4HashERNS_6VectorES2_m(ptr noundef nonnull align 8 dereferenceable(104) %13, ptr noundef nonnull align 8 dereferenceable(104) %14, i64 noundef %15)
  %16 = getelementptr inbounds nuw %"class.duckdb::DistinctStatistics", ptr %9, i32 0, i32 0
  %17 = call noundef ptr @_ZNK6duckdb10unique_ptrINS_11HyperLogLogESt14default_deleteIS1_ELb1EEptEv(ptr noundef nonnull align 8 dereferenceable(8) %16)
  %18 = load ptr, ptr %6, align 8, !tbaa !97
  %19 = load ptr, ptr %8, align 8, !tbaa !97
  %20 = load i64, ptr %7, align 8, !tbaa !40
  call void @_ZN6duckdb11HyperLogLog6UpdateERNS_6VectorES2_m(ptr noundef nonnull align 1 dereferenceable(64) %17, ptr noundef nonnull align 8 dereferenceable(104) %18, ptr noundef nonnull align 8 dereferenceable(104) %19, i64 noundef %20)
  ret void
}

; Function Attrs: mustprogress nounwind uwtable
define linkonce_odr noundef i64 @_ZN6duckdb8MinValueImEET_S1_S1_(i64 noundef %0, i64 noundef %1) #6 comdat {
  %3 = alloca i64, align 8
  %4 = alloca i64, align 8
  store i64 %0, ptr %3, align 8, !tbaa !40
  store i64 %1, ptr %4, align 8, !tbaa !40
  %5 = load i64, ptr %3, align 8, !tbaa !40
  %6 = load i64, ptr %4, align 8, !tbaa !40
  %7 = icmp ult i64 %5, %6
  br i1 %7, label %8, label %10

8:                                                ; preds = %2
  %9 = load i64, ptr %3, align 8, !tbaa !40
  br label %12

10:                                               ; preds = %2
  %11 = load i64, ptr %4, align 8, !tbaa !40
  br label %12

12:                                               ; preds = %10, %8
  %13 = phi i64 [ %9, %8 ], [ %11, %10 ]
  ret i64 %13
}

; Function Attrs: mustprogress nounwind uwtable
define linkonce_odr noundef i64 @_ZN6duckdb8MaxValueImEET_S1_S1_(i64 noundef %0, i64 noundef %1) #6 comdat {
  %3 = alloca i64, align 8
  %4 = alloca i64, align 8
  store i64 %0, ptr %3, align 8, !tbaa !40
  store i64 %1, ptr %4, align 8, !tbaa !40
  %5 = load i64, ptr %3, align 8, !tbaa !40
  %6 = load i64, ptr %4, align 8, !tbaa !40
  %7 = icmp ugt i64 %5, %6
  br i1 %7, label %8, label %10

8:                                                ; preds = %2
  %9 = load i64, ptr %3, align 8, !tbaa !40
  br label %12

10:                                               ; preds = %2
  %11 = load i64, ptr %4, align 8, !tbaa !40
  br label %12

12:                                               ; preds = %10, %8
  %13 = phi i64 [ %9, %8 ], [ %11, %10 ]
  ret i64 %13
}

; Function Attrs: mustprogress nounwind uwtable
define linkonce_odr noundef i64 @_ZN6duckdb16LossyNumericCastImdEET_T0_(double noundef %0) #6 comdat {
  %2 = alloca double, align 8
  store double %0, ptr %2, align 8, !tbaa !183
  %3 = load double, ptr %2, align 8, !tbaa !183
  %4 = fptoui double %3 to i64
  ret i64 %4
}

; Function Attrs: inlinehint mustprogress nounwind uwtable
define linkonce_odr noundef nonnull align 8 dereferenceable(24) ptr @_ZNK6duckdb6Vector7GetTypeEv(ptr noundef nonnull align 8 dereferenceable(104) %0) #5 comdat align 2 {
  %2 = alloca ptr, align 8
  store ptr %0, ptr %2, align 8, !tbaa !97
  %3 = load ptr, ptr %2, align 8
  %4 = getelementptr inbounds nuw %"class.duckdb::Vector", ptr %3, i32 0, i32 1
  ret ptr %4
}

; Function Attrs: mustprogress nounwind uwtable
define linkonce_odr noundef i64 @_ZNSt13__atomic_baseImEpLEm(ptr noundef nonnull align 8 dereferenceable(8) %0, i64 noundef %1) #6 comdat align 2 {
  %3 = alloca ptr, align 8
  %4 = alloca i64, align 8
  %5 = alloca i64, align 8
  %6 = alloca i64, align 8
  store ptr %0, ptr %3, align 8, !tbaa !266
  store i64 %1, ptr %4, align 8, !tbaa !40
  %7 = load ptr, ptr %3, align 8
  %8 = getelementptr inbounds nuw %"struct.std::__atomic_base", ptr %7, i32 0, i32 0
  %9 = load i64, ptr %4, align 8, !tbaa !40
  store i64 %9, ptr %5, align 8, !tbaa !40
  %10 = load i64, ptr %5, align 8
  %11 = atomicrmw add ptr %8, i64 %10 seq_cst, align 8
  %12 = add i64 %11, %10
  store i64 %12, ptr %6, align 8
  %13 = load i64, ptr %6, align 8, !tbaa !40
  ret i64 %13
}

; Function Attrs: mustprogress nounwind uwtable
define linkonce_odr noundef ptr @_ZNKSt10unique_ptrIN6duckdb18DistinctStatisticsESt14default_deleteIS1_EE3getEv(ptr noundef nonnull align 8 dereferenceable(8) %0) #6 comdat align 2 {
  %2 = alloca ptr, align 8
  store ptr %0, ptr %2, align 8, !tbaa !177
  %3 = load ptr, ptr %2, align 8
  %4 = getelementptr inbounds nuw %"class.std::unique_ptr.91", ptr %3, i32 0, i32 0
  %5 = call noundef ptr @_ZNKSt15__uniq_ptr_implIN6duckdb18DistinctStatisticsESt14default_deleteIS1_EE6_M_ptrEv(ptr noundef nonnull align 8 dereferenceable(8) %4) #3
  ret ptr %5
}

; Function Attrs: mustprogress uwtable
define void @_ZN6duckdb18DistinctStatistics12UpdateSampleERNS_6VectorEmS2_(ptr noundef nonnull align 8 dereferenceable(24) %0, ptr noundef nonnull align 8 dereferenceable(104) %1, i64 noundef %2, ptr noundef nonnull align 8 dereferenceable(104) %3) #4 align 2 {
  %5 = alloca ptr, align 8
  %6 = alloca ptr, align 8
  %7 = alloca i64, align 8
  %8 = alloca ptr, align 8
  %9 = alloca i64, align 8
  %10 = alloca double, align 8
  store ptr %0, ptr %5, align 8, !tbaa !181
  store ptr %1, ptr %6, align 8, !tbaa !97
  store i64 %2, ptr %7, align 8, !tbaa !40
  store ptr %3, ptr %8, align 8, !tbaa !97
  %11 = load ptr, ptr %5, align 8
  %12 = load i64, ptr %7, align 8, !tbaa !40
  %13 = getelementptr inbounds nuw %"class.duckdb::DistinctStatistics", ptr %11, i32 0, i32 2
  %14 = call noundef i64 @_ZNSt13__atomic_baseImEpLEm(ptr noundef nonnull align 8 dereferenceable(8) %13, i64 noundef %12) #3
  call void @llvm.lifetime.start.p0(i64 8, ptr %9) #3
  %15 = load i64, ptr %7, align 8, !tbaa !40
  store i64 %15, ptr %9, align 8, !tbaa !40
  call void @llvm.lifetime.start.p0(i64 8, ptr %10) #3
  %16 = load ptr, ptr %6, align 8, !tbaa !97
  %17 = call noundef nonnull align 8 dereferenceable(24) ptr @_ZNK6duckdb6Vector7GetTypeEv(ptr noundef nonnull align 8 dereferenceable(104) %16)
  %18 = call noundef zeroext i1 @_ZNK6duckdb11LogicalType10IsIntegralEv(ptr noundef nonnull align 8 dereferenceable(24) %17)
  %19 = select i1 %18, double 3.000000e-01, double 1.000000e-01
  store double %19, ptr %10, align 8, !tbaa !183
  %20 = load double, ptr %10, align 8, !tbaa !183
  %21 = fmul double %20, 2.048000e+03
  %22 = call noundef i64 @_ZN6duckdb16LossyNumericCastImdEET_T0_(double noundef %21)
  %23 = call noundef i64 @_ZN6duckdb8MaxValueImEET_S1_S1_(i64 noundef %22, i64 noundef 1)
  store i64 %23, ptr %7, align 8, !tbaa !40
  %24 = load i64, ptr %7, align 8, !tbaa !40
  %25 = load i64, ptr %9, align 8, !tbaa !40
  %26 = call noundef i64 @_ZN6duckdb8MinValueImEET_S1_S1_(i64 noundef %24, i64 noundef %25)
  store i64 %26, ptr %7, align 8, !tbaa !40
  %27 = load ptr, ptr %6, align 8, !tbaa !97
  %28 = load i64, ptr %7, align 8, !tbaa !40
  %29 = load ptr, ptr %8, align 8, !tbaa !97
  call void @_ZN6duckdb18DistinctStatistics14UpdateInternalERNS_6VectorEmS2_(ptr noundef nonnull align 8 dereferenceable(24) %11, ptr noundef nonnull align 8 dereferenceable(104) %27, i64 noundef %28, ptr noundef nonnull align 8 dereferenceable(104) %29)
  call void @llvm.lifetime.end.p0(i64 8, ptr %10) #3
  call void @llvm.lifetime.end.p0(i64 8, ptr %9) #3
  ret void
}

; Function Attrs: mustprogress nounwind uwtable
define linkonce_odr noundef zeroext i1 @_ZNKSt10unique_ptrIN6duckdb18DistinctStatisticsESt14default_deleteIS1_EEcvbEv(ptr noundef nonnull align 8 dereferenceable(8) %0) #6 comdat align 2 {
  %2 = alloca ptr, align 8
  store ptr %0, ptr %2, align 8, !tbaa !177
  %3 = load ptr, ptr %2, align 8
  %4 = call noundef ptr @_ZNKSt10unique_ptrIN6duckdb18DistinctStatisticsESt14default_deleteIS1_EE3getEv(ptr noundef nonnull align 8 dereferenceable(8) %3) #3
  %5 = icmp eq ptr %4, null
  %6 = select i1 %5, i1 false, i1 true
  ret i1 %6
}

; Function Attrs: mustprogress uwtable
define void @_ZN6duckdb16ColumnStatistics24UpdateDistinctStatisticsERNS_6VectorEmS2_(ptr noundef nonnull align 8 dereferenceable(96) %0, ptr noundef nonnull align 8 dereferenceable(104) %1, i64 noundef %2, ptr noundef nonnull align 8 dereferenceable(104) %3) #4 align 2 {
  %5 = alloca ptr, align 8
  %6 = alloca ptr, align 8
  %7 = alloca i64, align 8
  %8 = alloca ptr, align 8
  store ptr %0, ptr %5, align 8, !tbaa !173
  store ptr %1, ptr %6, align 8, !tbaa !97
  store i64 %2, ptr %7, align 8, !tbaa !40
  store ptr %3, ptr %8, align 8, !tbaa !97
  %9 = load ptr, ptr %5, align 8
  %10 = getelementptr inbounds nuw %"class.duckdb::ColumnStatistics", ptr %9, i32 0, i32 1
  %11 = call noundef zeroext i1 @_ZNKSt10unique_ptrIN6duckdb18DistinctStatisticsESt14default_deleteIS1_EEcvbEv(ptr noundef nonnull align 8 dereferenceable(8) %10) #3
  br i1 %11, label %13, label %12

12:                                               ; preds = %4
  br label %19

13:                                               ; preds = %4
  %14 = getelementptr inbounds nuw %"class.duckdb::ColumnStatistics", ptr %9, i32 0, i32 1
  %15 = call noundef ptr @_ZNK6duckdb10unique_ptrINS_18DistinctStatisticsESt14default_deleteIS1_ELb1EEptEv(ptr noundef nonnull align 8 dereferenceable(8) %14)
  %16 = load ptr, ptr %6, align 8, !tbaa !97
  %17 = load i64, ptr %7, align 8, !tbaa !40
  %18 = load ptr, ptr %8, align 8, !tbaa !97
  call void @_ZN6duckdb18DistinctStatistics12UpdateSampleERNS_6VectorEmS2_(ptr noundef nonnull align 8 dereferenceable(24) %15, ptr noundef nonnull align 8 dereferenceable(104) %16, i64 noundef %17, ptr noundef nonnull align 8 dereferenceable(104) %18)
  br label %19

19:                                               ; preds = %13, %12
  ret void
}