; Function Attrs: mustprogress uwtable
define void @_ZN6duckdb16ColumnStatistics24UpdateDistinctStatisticsERNS_6VectorEmS2_(ptr noundef nonnull align 8 dereferenceable(96) %0, ptr noundef nonnull align 8 dereferenceable(104) %1, i64 noundef %2, ptr noundef nonnull align 8 dereferenceable(104) %3) local_unnamed_addr #3 align 2 {
  %5 = getelementptr inbounds nuw i8, ptr %0, i64 88
  %6 = load ptr, ptr %5, align 8, !tbaa !215
  %.not = icmp eq ptr %6, null
  br i1 %.not, label %18, label %7

7:                                                ; preds = %4
  %8 = tail call noundef ptr @_ZNK6duckdb10unique_ptrINS_18DistinctStatisticsESt14default_deleteIS1_ELb1EEptEv(ptr noundef nonnull align 8 dereferenceable(8) %5)
  %9 = getelementptr inbounds nuw i8, ptr %8, i64 16
  %10 = atomicrmw add ptr %9, i64 %2 seq_cst, align 8
  %11 = getelementptr inbounds nuw i8, ptr %1, i64 8
  %12 = tail call noundef zeroext i1 @_ZNK6duckdb11LogicalType10IsIntegralEv(ptr noundef nonnull align 8 dereferenceable(24) %11)
  %13 = select i1 %12, i64 614, i64 204
  %14 = tail call noundef i64 @llvm.umin.i64(i64 %13, i64 %2)
  %15 = getelementptr inbounds nuw i8, ptr %8, i64 8
  %16 = atomicrmw add ptr %15, i64 %14 seq_cst, align 8
  tail call void @_ZN6duckdb16VectorOperations4HashERNS_6VectorES2_m(ptr noundef nonnull align 8 dereferenceable(104) %1, ptr noundef nonnull align 8 dereferenceable(104) %3, i64 noundef %14)
  %17 = tail call noundef ptr @_ZNK6duckdb10unique_ptrINS_11HyperLogLogESt14default_deleteIS1_ELb1EEptEv(ptr noundef nonnull align 8 dereferenceable(24) %8)
  tail call void @_ZN6duckdb11HyperLogLog6UpdateERNS_6VectorES2_m(ptr noundef nonnull align 1 dereferenceable(64) %17, ptr noundef nonnull align 8 dereferenceable(104) %1, ptr noundef nonnull align 8 dereferenceable(104) %3, i64 noundef %14)
  br label %18

18:                                               ; preds = %4, %7
  ret void
}